target datalayout = "e-m:e-p270:32:32-p271:32:32-p272:64:64-i64:64-i128:128-f80:128-n8:16:32:64-S128"
target triple = "x86_64-pc-linux-gnu"

%struct._lv_obj_t = type { ptr, ptr, ptr, ptr, ptr, %struct.lv_area_t, i32, i16, i16 }
%struct.lv_area_t = type { i32, i32, i32, i32 }
%struct._lv_obj_style_t = type { ptr, i32 }

; Function Attrs: nounwind uwtable
define internal void @full_cache_refresh(ptr noundef %0, i32 noundef %1) #0 {
  %3 = alloca ptr, align 8
  %4 = alloca i32, align 4
  store ptr %0, ptr %3, align 8, !tbaa !30
  store i32 %1, ptr %4, align 4, !tbaa !32
  ret void
}

; Function Attrs: inlinehint nounwind uwtable
define internal void @lv_memzero(ptr noundef %0, i64 noundef %1) #3 {
  %3 = alloca ptr, align 8
  %4 = alloca i64, align 8
  store ptr %0, ptr %3, align 8, !tbaa !31
  store i64 %1, ptr %4, align 8, !tbaa !66
  %5 = load ptr, ptr %3, align 8, !tbaa !31
  %6 = load i64, ptr %4, align 8, !tbaa !66
  call void @lv_memset(ptr noundef %5, i8 noundef zeroext 0, i64 noundef %6)
  ret void
}

; Function Attrs: inlinehint nounwind uwtable
define internal i32 @lv_obj_style_get_selector_part(i32 noundef %0) #3 {
  %2 = alloca i32, align 4
  store i32 %0, ptr %2, align 4, !tbaa !32
  %3 = load i32, ptr %2, align 4, !tbaa !32
  %4 = and i32 %3, 16711680
  ret i32 %4
}

; Function Attrs: inlinehint nounwind uwtable
define internal zeroext i16 @lv_obj_style_get_selector_state(i32 noundef %0) #3 {
  %2 = alloca i32, align 4
  store i32 %0, ptr %2, align 4, !tbaa !32
  %3 = load i32, ptr %2, align 4, !tbaa !32
  %4 = and i32 %3, 65535
  %5 = trunc i32 %4 to i16
  ret i16 %5
}

; Function Attrs: nounwind uwtable
define zeroext i1 @lv_obj_replace_style(ptr noundef %0, ptr noundef %1, ptr noundef %2, i32 noundef %3) #0 {
  %5 = alloca i1, align 1
  %6 = alloca ptr, align 8
  %7 = alloca ptr, align 8
  %8 = alloca ptr, align 8
  %9 = alloca i32, align 4
  %10 = alloca i16, align 2
  %11 = alloca i32, align 4
  %12 = alloca i32, align 4
  %13 = alloca i8, align 1
  %14 = alloca i32, align 4
  %15 = alloca i16, align 2
  %16 = alloca i32, align 4
  store ptr %0, ptr %6, align 8, !tbaa !30
  store ptr %1, ptr %7, align 8, !tbaa !31
  store ptr %2, ptr %8, align 8, !tbaa !31
  store i32 %3, ptr %9, align 4, !tbaa !32
  call void @llvm.lifetime.start.p0(i64 2, ptr %10) #6
  %17 = load i32, ptr %9, align 4, !tbaa !32
  %18 = call zeroext i16 @lv_obj_style_get_selector_state(i32 noundef %17)
  store i16 %18, ptr %10, align 2, !tbaa !63
  call void @llvm.lifetime.start.p0(i64 4, ptr %11) #6
  %19 = load i32, ptr %9, align 4, !tbaa !32
  %20 = call i32 @lv_obj_style_get_selector_part(i32 noundef %19)
  store i32 %20, ptr %11, align 4, !tbaa !32
  %21 = load ptr, ptr %6, align 8, !tbaa !30
  %22 = icmp ne ptr %21, null
  br i1 %22, label %23, label %33

23:                                               ; preds = %4
  %24 = load ptr, ptr %7, align 8, !tbaa !31
  %25 = icmp ne ptr %24, null
  br i1 %25, label %26, label %33

26:                                               ; preds = %23
  %27 = load ptr, ptr %8, align 8, !tbaa !31
  %28 = icmp ne ptr %27, null
  br i1 %28, label %29, label %33

29:                                               ; preds = %26
  %30 = load ptr, ptr %7, align 8, !tbaa !31
  %31 = load ptr, ptr %8, align 8, !tbaa !31
  %32 = icmp eq ptr %30, %31
  br i1 %32, label %33, label %34

33:                                               ; preds = %29, %26, %23, %4
  store i1 false, ptr %5, align 1
  store i32 1, ptr %12, align 4
  br label %165

34:                                               ; preds = %29
  %35 = load ptr, ptr %6, align 8, !tbaa !30
  %36 = load i32, ptr %9, align 4, !tbaa !32
  %37 = call zeroext i1 @trans_delete(ptr noundef %35, i32 noundef %36, i8 noundef zeroext -1, ptr noundef null)
  call void @llvm.lifetime.start.p0(i64 1, ptr %13) #6
  store i8 0, ptr %13, align 1, !tbaa !47
  call void @llvm.lifetime.start.p0(i64 4, ptr %14) #6
  store i32 0, ptr %14, align 4, !tbaa !32
  br label %38

38:                                               ; preds = %151, %34
  %39 = load i32, ptr %14, align 4, !tbaa !32
  %40 = load ptr, ptr %6, align 8, !tbaa !30
  %41 = getelementptr inbounds nuw %struct._lv_obj_t, ptr %40, i32 0, i32 8
  %42 = load i16, ptr %41, align 2
  %43 = lshr i16 %42, 4
  %44 = and i16 %43, 63
  %45 = zext i16 %44 to i32
  %46 = icmp ult i32 %39, %45
  br i1 %46, label %47, label %154

47:                                               ; preds = %38
  call void @llvm.lifetime.start.p0(i64 2, ptr %15) #6
  %48 = load ptr, ptr %6, align 8, !tbaa !30
  %49 = getelementptr inbounds nuw %struct._lv_obj_t, ptr %48, i32 0, i32 3
  %50 = load ptr, ptr %49, align 8, !tbaa !33
  %51 = load i32, ptr %14, align 4, !tbaa !32
  %52 = zext i32 %51 to i64
  %53 = getelementptr inbounds nuw %struct._lv_obj_style_t, ptr %50, i64 %52
  %54 = getelementptr inbounds nuw %struct._lv_obj_style_t, ptr %53, i32 0, i32 1
  %55 = load i32, ptr %54, align 8
  %56 = and i32 %55, 16777215
  %57 = call zeroext i16 @lv_obj_style_get_selector_state(i32 noundef %56)
  store i16 %57, ptr %15, align 2, !tbaa !63
  call void @llvm.lifetime.start.p0(i64 4, ptr %16) #6
  %58 = load ptr, ptr %6, align 8, !tbaa !30
  %59 = getelementptr inbounds nuw %struct._lv_obj_t, ptr %58, i32 0, i32 3
  %60 = load ptr, ptr %59, align 8, !tbaa !33
  %61 = load i32, ptr %14, align 4, !tbaa !32
  %62 = zext i32 %61 to i64
  %63 = getelementptr inbounds nuw %struct._lv_obj_style_t, ptr %60, i64 %62
  %64 = getelementptr inbounds nuw %struct._lv_obj_style_t, ptr %63, i32 0, i32 1
  %65 = load i32, ptr %64, align 8
  %66 = and i32 %65, 16777215
  %67 = call i32 @lv_obj_style_get_selector_part(i32 noundef %66)
  store i32 %67, ptr %16, align 4, !tbaa !32
  %68 = load ptr, ptr %6, align 8, !tbaa !30
  %69 = getelementptr inbounds nuw %struct._lv_obj_t, ptr %68, i32 0, i32 3
  %70 = load ptr, ptr %69, align 8, !tbaa !33
  %71 = load i32, ptr %14, align 4, !tbaa !32
  %72 = zext i32 %71 to i64
  %73 = getelementptr inbounds nuw %struct._lv_obj_style_t, ptr %70, i64 %72
  %74 = getelementptr inbounds nuw %struct._lv_obj_style_t, ptr %73, i32 0, i32 1
  %75 = load i32, ptr %74, align 8
  %76 = lshr i32 %75, 24
  %77 = and i32 %76, 1
  %78 = icmp ne i32 %77, 0
  br i1 %78, label %91, label %79

79:                                               ; preds = %47
  %80 = load ptr, ptr %6, align 8, !tbaa !30
  %81 = getelementptr inbounds nuw %struct._lv_obj_t, ptr %80, i32 0, i32 3
  %82 = load ptr, ptr %81, align 8, !tbaa !33
  %83 = load i32, ptr %14, align 4, !tbaa !32
  %84 = zext i32 %83 to i64
  %85 = getelementptr inbounds nuw %struct._lv_obj_style_t, ptr %82, i64 %84
  %86 = getelementptr inbounds nuw %struct._lv_obj_style_t, ptr %85, i32 0, i32 1
  %87 = load i32, ptr %86, align 8
  %88 = lshr i32 %87, 25
  %89 = and i32 %88, 1
  %90 = icmp ne i32 %89, 0
  br i1 %90, label %91, label %92

91:                                               ; preds = %79, %47
  store i32 4, ptr %12, align 4
  br label %148

92:                                               ; preds = %79
  %93 = load i16, ptr %10, align 2, !tbaa !63
  %94 = zext i16 %93 to i32
  %95 = icmp ne i32 %94, 65535
  br i1 %95, label %96, label %102

96:                                               ; preds = %92
  %97 = load i16, ptr %15, align 2, !tbaa !63
  %98 = zext i16 %97 to i32
  %99 = load i16, ptr %10, align 2, !tbaa !63
  %100 = zext i16 %99 to i32
  %101 = icmp ne i32 %98, %100
  br i1 %101, label %120, label %102

102:                                              ; preds = %96, %92
  %103 = load i32, ptr %11, align 4, !tbaa !32
  %104 = icmp ne i32 %103, 983040
  br i1 %104, label %105, label %109

105:                                              ; preds = %102
  %106 = load i32, ptr %16, align 4, !tbaa !32
  %107 = load i32, ptr %11, align 4, !tbaa !32
  %108 = icmp ne i32 %106, %107
  br i1 %108, label %120, label %109

109:                                              ; preds = %105, %102
  %110 = load ptr, ptr %7, align 8, !tbaa !31
  %111 = load ptr, ptr %6, align 8, !tbaa !30
  %112 = getelementptr inbounds nuw %struct._lv_obj_t, ptr %111, i32 0, i32 3
  %113 = load ptr, ptr %112, align 8, !tbaa !33
  %114 = load i32, ptr %14, align 4, !tbaa !32
  %115 = zext i32 %114 to i64
  %116 = getelementptr inbounds nuw %struct._lv_obj_style_t, ptr %113, i64 %115
  %117 = getelementptr inbounds nuw %struct._lv_obj_style_t, ptr %116, i32 0, i32 0
  %118 = load ptr, ptr %117, align 8, !tbaa !45
  %119 = icmp ne ptr %110, %118
  br i1 %119, label %120, label %121

120:                                              ; preds = %109, %105, %96
  store i32 4, ptr %12, align 4
  br label %148

121:                                              ; preds = %109
  %122 = load ptr, ptr %6, align 8, !tbaa !30
  %123 = getelementptr inbounds nuw %struct._lv_obj_t, ptr %122, i32 0, i32 3
  %124 = load ptr, ptr %123, align 8, !tbaa !33
  %125 = load i32, ptr %14, align 4, !tbaa !32
  %126 = zext i32 %125 to i64
  %127 = getelementptr inbounds nuw %struct._lv_obj_style_t, ptr %124, i64 %126
  call void @lv_memzero(ptr noundef %127, i64 noundef 16)
  %128 = load ptr, ptr %8, align 8, !tbaa !31
  %129 = load ptr, ptr %6, align 8, !tbaa !30
  %130 = getelementptr inbounds nuw %struct._lv_obj_t, ptr %129, i32 0, i32 3
  %131 = load ptr, ptr %130, align 8, !tbaa !33
  %132 = load i32, ptr %14, align 4, !tbaa !32
  %133 = zext i32 %132 to i64
  %134 = getelementptr inbounds nuw %struct._lv_obj_style_t, ptr %131, i64 %133
  %135 = getelementptr inbounds nuw %struct._lv_obj_style_t, ptr %134, i32 0, i32 0
  store ptr %128, ptr %135, align 8, !tbaa !45
  %136 = load i32, ptr %9, align 4, !tbaa !32
  %137 = load ptr, ptr %6, align 8, !tbaa !30
  %138 = getelementptr inbounds nuw %struct._lv_obj_t, ptr %137, i32 0, i32 3
  %139 = load ptr, ptr %138, align 8, !tbaa !33
  %140 = load i32, ptr %14, align 4, !tbaa !32
  %141 = zext i32 %140 to i64
  %142 = getelementptr inbounds nuw %struct._lv_obj_style_t, ptr %139, i64 %141
  %143 = getelementptr inbounds nuw %struct._lv_obj_style_t, ptr %142, i32 0, i32 1
  %144 = load i32, ptr %143, align 8
  %145 = and i32 %136, 16777215
  %146 = and i32 %144, -16777216
  %147 = or i32 %146, %145
  store i32 %147, ptr %143, align 8
  store i8 1, ptr %13, align 1, !tbaa !47
  store i32 0, ptr %12, align 4
  br label %148

148:                                              ; preds = %121, %120, %91
  call void @llvm.lifetime.end.p0(i64 4, ptr %16) #6
  call void @llvm.lifetime.end.p0(i64 2, ptr %15) #6
  %149 = load i32, ptr %12, align 4
  switch i32 %149, label %167 [
    i32 0, label %150
    i32 4, label %151
  ]

150:                                              ; preds = %148
  br label %151

151:                                              ; preds = %150, %148
  %152 = load i32, ptr %14, align 4, !tbaa !32
  %153 = add i32 %152, 1
  store i32 %153, ptr %14, align 4, !tbaa !32
  br label %38, !llvm.loop !68

154:                                              ; preds = %38
  %155 = load i8, ptr %13, align 1, !tbaa !47, !range !54, !noundef !55
  %156 = trunc i8 %155 to i1
  br i1 %156, label %157, label %162

157:                                              ; preds = %154
  %158 = load ptr, ptr %6, align 8, !tbaa !30
  %159 = load i32, ptr %11, align 4, !tbaa !32
  call void @full_cache_refresh(ptr noundef %158, i32 noundef %159)
  %160 = load ptr, ptr %6, align 8, !tbaa !30
  %161 = load i32, ptr %11, align 4, !tbaa !32
  call void @lv_obj_refresh_style(ptr noundef %160, i32 noundef %161, i8 noundef zeroext -1)
  br label %162

162:                                              ; preds = %157, %154
  %163 = load i8, ptr %13, align 1, !tbaa !47, !range !54, !noundef !55
  %164 = trunc i8 %163 to i1
  store i1 %164, ptr %5, align 1
  store i32 1, ptr %12, align 4
  call void @llvm.lifetime.end.p0(i64 4, ptr %14) #6
  call void @llvm.lifetime.end.p0(i64 1, ptr %13) #6
  br label %165

165:                                              ; preds = %162, %33
  call void @llvm.lifetime.end.p0(i64 4, ptr %11) #6
  call void @llvm.lifetime.end.p0(i64 2, ptr %10) #6
  %166 = load i1, ptr %5, align 1
  ret i1 %166

167:                                              ; preds = %148
  unreachable
}