; Function Attrs: nounwind uwtable
define noundef zeroext i1 @lv_obj_replace_style(ptr noundef %0, ptr noundef readnone captures(address) %1, ptr noundef %2, i32 noundef %3) local_unnamed_addr #0 {
  %5 = trunc i32 %3 to i16
  %6 = and i32 %3, 16711680
  %7 = icmp eq ptr %0, null
  %8 = icmp eq ptr %1, null
  %or.cond.not67 = or i1 %7, %8
  %9 = icmp eq ptr %2, null
  %or.cond3.not64 = or i1 %or.cond.not67, %9
  %10 = icmp eq ptr %1, %2
  %or.cond59 = or i1 %10, %or.cond3.not64
  br i1 %or.cond59, label %.critedge, label %11

11:                                               ; preds = %4
  tail call fastcc void @trans_delete(ptr noundef nonnull %0, i32 noundef %3, i8 noundef zeroext -1, ptr noundef null)
  %12 = getelementptr inbounds nuw i8, ptr %0, i64 62
  %13 = load i16, ptr %12, align 2
  %14 = and i16 %13, 1008
  %.not = icmp eq i16 %14, 0
  br i1 %.not, label %.critedge, label %.lr.ph

.lr.ph:                                           ; preds = %11
  %15 = getelementptr inbounds nuw i8, ptr %0, i64 24
  %.not54 = icmp eq i16 %5, -1
  %.not56 = icmp eq i32 %6, 983040
  %16 = and i32 %3, 16777215
  br i1 %.not54, label %.lr.ph.split.us, label %.lr.ph.split

.lr.ph.split.us:                                  ; preds = %.lr.ph
  br i1 %.not56, label %.lr.ph.split.us.split.us, label %.lr.ph.split.us.split

.lr.ph.split.us.split.us:                         ; preds = %.lr.ph.split.us, %32
  %17 = phi i16 [ %33, %32 ], [ %13, %.lr.ph.split.us ]
  %indvars.iv90 = phi i64 [ %indvars.iv.next91, %32 ], [ 0, %.lr.ph.split.us ]
  %.04768.us.us = phi i1 [ %.1.us.us, %32 ], [ false, %.lr.ph.split.us ]
  %18 = load ptr, ptr %15, align 8, !tbaa !38
  %19 = getelementptr inbounds nuw %struct._lv_obj_style_t, ptr %18, i64 %indvars.iv90, i32 1
  %20 = load i32, ptr %19, align 8
  %21 = and i32 %20, 50331648
  %or.cond60.us.us = icmp eq i32 %21, 0
  br i1 %or.cond60.us.us, label %22, label %32

22:                                               ; preds = %.lr.ph.split.us.split.us
  %23 = getelementptr inbounds nuw %struct._lv_obj_style_t, ptr %18, i64 %indvars.iv90
  %24 = load ptr, ptr %23, align 8, !tbaa !49
  %.not58.us.us = icmp eq ptr %1, %24
  br i1 %.not58.us.us, label %25, label %32

25:                                               ; preds = %22
  tail call void @lv_memset(ptr noundef nonnull %23, i8 noundef zeroext 0, i64 noundef 16) #9
  %26 = load ptr, ptr %15, align 8, !tbaa !38
  %27 = getelementptr inbounds nuw %struct._lv_obj_style_t, ptr %26, i64 %indvars.iv90
  store ptr %2, ptr %27, align 8, !tbaa !49
  %28 = getelementptr inbounds nuw %struct._lv_obj_style_t, ptr %26, i64 %indvars.iv90, i32 1
  %29 = load i32, ptr %28, align 8
  %30 = and i32 %29, -16777216
  %31 = or disjoint i32 %30, 1048575
  store i32 %31, ptr %28, align 8
  %.pre94 = load i16, ptr %12, align 2
  br label %32

32:                                               ; preds = %25, %22, %.lr.ph.split.us.split.us
  %33 = phi i16 [ %.pre94, %25 ], [ %17, %.lr.ph.split.us.split.us ], [ %17, %22 ]
  %.1.us.us = phi i1 [ true, %25 ], [ %.04768.us.us, %.lr.ph.split.us.split.us ], [ %.04768.us.us, %22 ]
  %indvars.iv.next91 = add nuw nsw i64 %indvars.iv90, 1
  %34 = lshr i16 %33, 4
  %35 = and i16 %34, 63
  %36 = zext nneg i16 %35 to i64
  %37 = icmp samesign ult i64 %indvars.iv.next91, %36
  br i1 %37, label %.lr.ph.split.us.split.us, label %._crit_edge, !llvm.loop !70

.lr.ph.split.us.split:                            ; preds = %.lr.ph.split.us, %54
  %38 = phi i16 [ %55, %54 ], [ %13, %.lr.ph.split.us ]
  %indvars.iv88 = phi i64 [ %indvars.iv.next89, %54 ], [ 0, %.lr.ph.split.us ]
  %.04768.us = phi i1 [ %.1.us, %54 ], [ false, %.lr.ph.split.us ]
  %39 = load ptr, ptr %15, align 8, !tbaa !38
  %40 = getelementptr inbounds nuw %struct._lv_obj_style_t, ptr %39, i64 %indvars.iv88, i32 1
  %41 = load i32, ptr %40, align 8
  %42 = and i32 %41, 16711680
  %43 = and i32 %41, 50331648
  %or.cond60.us = icmp eq i32 %43, 0
  %.not57.us = icmp eq i32 %42, %6
  %or.cond = and i1 %or.cond60.us, %.not57.us
  br i1 %or.cond, label %44, label %54

44:                                               ; preds = %.lr.ph.split.us.split
  %45 = getelementptr inbounds nuw %struct._lv_obj_style_t, ptr %39, i64 %indvars.iv88
  %46 = load ptr, ptr %45, align 8, !tbaa !49
  %.not58.us = icmp eq ptr %1, %46
  br i1 %.not58.us, label %47, label %54

47:                                               ; preds = %44
  tail call void @lv_memset(ptr noundef nonnull %45, i8 noundef zeroext 0, i64 noundef 16) #9
  %48 = load ptr, ptr %15, align 8, !tbaa !38
  %49 = getelementptr inbounds nuw %struct._lv_obj_style_t, ptr %48, i64 %indvars.iv88
  store ptr %2, ptr %49, align 8, !tbaa !49
  %50 = getelementptr inbounds nuw %struct._lv_obj_style_t, ptr %48, i64 %indvars.iv88, i32 1
  %51 = load i32, ptr %50, align 8
  %52 = and i32 %51, -16777216
  %53 = or disjoint i32 %52, %16
  store i32 %53, ptr %50, align 8
  %.pre93 = load i16, ptr %12, align 2
  br label %54

54:                                               ; preds = %47, %44, %.lr.ph.split.us.split
  %55 = phi i16 [ %.pre93, %47 ], [ %38, %.lr.ph.split.us.split ], [ %38, %44 ]
  %.1.us = phi i1 [ true, %47 ], [ %.04768.us, %.lr.ph.split.us.split ], [ %.04768.us, %44 ]
  %indvars.iv.next89 = add nuw nsw i64 %indvars.iv88, 1
  %56 = lshr i16 %55, 4
  %57 = and i16 %56, 63
  %58 = zext nneg i16 %57 to i64
  %59 = icmp samesign ult i64 %indvars.iv.next89, %58
  br i1 %59, label %.lr.ph.split.us.split, label %._crit_edge, !llvm.loop !70

.lr.ph.split:                                     ; preds = %.lr.ph
  br i1 %.not56, label %.lr.ph.split.split.us, label %.lr.ph.split.split

.lr.ph.split.split.us:                            ; preds = %.lr.ph.split, %76
  %60 = phi i16 [ %77, %76 ], [ %13, %.lr.ph.split ]
  %indvars.iv86 = phi i64 [ %indvars.iv.next87, %76 ], [ 0, %.lr.ph.split ]
  %.04768.us71 = phi i1 [ %.1.us76, %76 ], [ false, %.lr.ph.split ]
  %61 = load ptr, ptr %15, align 8, !tbaa !38
  %62 = getelementptr inbounds nuw %struct._lv_obj_style_t, ptr %61, i64 %indvars.iv86, i32 1
  %63 = load i32, ptr %62, align 8
  %64 = and i32 %63, 50331648
  %or.cond60.us72 = icmp eq i32 %64, 0
  %65 = trunc i32 %63 to i16
  %.not55.us = icmp eq i16 %65, %5
  %or.cond80 = and i1 %or.cond60.us72, %.not55.us
  br i1 %or.cond80, label %66, label %76

66:                                               ; preds = %.lr.ph.split.split.us
  %67 = getelementptr inbounds nuw %struct._lv_obj_style_t, ptr %61, i64 %indvars.iv86
  %68 = load ptr, ptr %67, align 8, !tbaa !49
  %.not58.us75 = icmp eq ptr %1, %68
  br i1 %.not58.us75, label %69, label %76

69:                                               ; preds = %66
  tail call void @lv_memset(ptr noundef nonnull %67, i8 noundef zeroext 0, i64 noundef 16) #9
  %70 = load ptr, ptr %15, align 8, !tbaa !38
  %71 = getelementptr inbounds nuw %struct._lv_obj_style_t, ptr %70, i64 %indvars.iv86
  store ptr %2, ptr %71, align 8, !tbaa !49
  %72 = getelementptr inbounds nuw %struct._lv_obj_style_t, ptr %70, i64 %indvars.iv86, i32 1
  %73 = load i32, ptr %72, align 8
  %74 = and i32 %73, -16777216
  %75 = or disjoint i32 %74, %16
  store i32 %75, ptr %72, align 8
  %.pre92 = load i16, ptr %12, align 2
  br label %76

76:                                               ; preds = %69, %66, %.lr.ph.split.split.us
  %77 = phi i16 [ %.pre92, %69 ], [ %60, %.lr.ph.split.split.us ], [ %60, %66 ]
  %.1.us76 = phi i1 [ true, %69 ], [ %.04768.us71, %.lr.ph.split.split.us ], [ %.04768.us71, %66 ]
  %indvars.iv.next87 = add nuw nsw i64 %indvars.iv86, 1
  %78 = lshr i16 %77, 4
  %79 = and i16 %78, 63
  %80 = zext nneg i16 %79 to i64
  %81 = icmp samesign ult i64 %indvars.iv.next87, %80
  br i1 %81, label %.lr.ph.split.split.us, label %._crit_edge, !llvm.loop !70

.lr.ph.split.split:                               ; preds = %.lr.ph.split, %99
  %82 = phi i16 [ %100, %99 ], [ %13, %.lr.ph.split ]
  %indvars.iv = phi i64 [ %indvars.iv.next, %99 ], [ 0, %.lr.ph.split ]
  %.04768 = phi i1 [ %.1, %99 ], [ false, %.lr.ph.split ]
  %83 = load ptr, ptr %15, align 8, !tbaa !38
  %84 = getelementptr inbounds nuw %struct._lv_obj_style_t, ptr %83, i64 %indvars.iv, i32 1
  %85 = load i32, ptr %84, align 8
  %86 = and i32 %85, 16711680
  %87 = and i32 %85, 50331648
  %or.cond60 = icmp eq i32 %87, 0
  %88 = trunc i32 %85 to i16
  %.not55 = icmp eq i16 %88, %5
  %or.cond81 = and i1 %or.cond60, %.not55
  %.not57 = icmp eq i32 %86, %6
  %or.cond82 = and i1 %or.cond81, %.not57
  br i1 %or.cond82, label %89, label %99

89:                                               ; preds = %.lr.ph.split.split
  %90 = getelementptr inbounds nuw %struct._lv_obj_style_t, ptr %83, i64 %indvars.iv
  %91 = load ptr, ptr %90, align 8, !tbaa !49
  %.not58 = icmp eq ptr %1, %91
  br i1 %.not58, label %92, label %99

92:                                               ; preds = %89
  tail call void @lv_memset(ptr noundef nonnull %90, i8 noundef zeroext 0, i64 noundef 16) #9
  %93 = load ptr, ptr %15, align 8, !tbaa !38
  %94 = getelementptr inbounds nuw %struct._lv_obj_style_t, ptr %93, i64 %indvars.iv
  store ptr %2, ptr %94, align 8, !tbaa !49
  %95 = getelementptr inbounds nuw %struct._lv_obj_style_t, ptr %93, i64 %indvars.iv, i32 1
  %96 = load i32, ptr %95, align 8
  %97 = and i32 %96, -16777216
  %98 = or disjoint i32 %97, %16
  store i32 %98, ptr %95, align 8
  %.pre = load i16, ptr %12, align 2
  br label %99

99:                                               ; preds = %89, %.lr.ph.split.split, %92
  %100 = phi i16 [ %.pre, %92 ], [ %82, %.lr.ph.split.split ], [ %82, %89 ]
  %.1 = phi i1 [ true, %92 ], [ %.04768, %.lr.ph.split.split ], [ %.04768, %89 ]
  %indvars.iv.next = add nuw nsw i64 %indvars.iv, 1
  %101 = lshr i16 %100, 4
  %102 = and i16 %101, 63
  %103 = zext nneg i16 %102 to i64
  %104 = icmp samesign ult i64 %indvars.iv.next, %103
  br i1 %104, label %.lr.ph.split.split, label %._crit_edge, !llvm.loop !70

._crit_edge:                                      ; preds = %99, %76, %54, %32
  %.047.lcssa = phi i1 [ %.1.us.us, %32 ], [ %.1.us, %54 ], [ %.1.us76, %76 ], [ %.1, %99 ]
  br i1 %.047.lcssa, label %105, label %.critedge

105:                                              ; preds = %._crit_edge
  tail call void @lv_obj_refresh_style(ptr noundef nonnull %0, i32 noundef %6, i8 noundef zeroext -1)
  br label %.critedge

.critedge:                                        ; preds = %11, %._crit_edge, %105, %4
  %.0 = phi i1 [ false, %4 ], [ true, %105 ], [ false, %._crit_edge ], [ false, %11 ]
  ret i1 %.0
}